Certificate:
    Data:
        Version: 3 (0x2)
        Serial Number: 870 (0x366)
        Signature Algorithm: sha1WithRSAEncryption
        Issuer: C=AU, ST=NSW, L=Sydney, O=Macquarie University, OU=MAMS, CN=MAMS Testbed Federation Level 1 CA/emailAddress=sysadmin@federation.org.au
        Validity
            Not Before: Aug 29 02:47:10 2008 GMT
            Not After : Aug 29 02:47:10 2009 GMT
        Subject: C=au, ST=nsw, L=sydney, O=mq, OU=melcoe, CN=arcs.ramp.org.au/emailAddress=admin@melcoe.mq.edu.au
        Subject Public Key Info:
            Public Key Algorithm: rsaEncryption
            RSA Public Key: (1024 bit)
                Modulus (1024 bit):
                    00:c2:ca:1d:c6:9b:e0:6d:33:5a:4d:35:ee:f4:60:
                    8e:fa:22:e1:18:51:2a:9f:26:60:da:5e:18:c8:58:
                    85:99:df:cc:33:73:ea:6a:9f:eb:65:fb:e5:0c:7e:
                    d7:5c:83:d7:ee:11:73:0e:64:9f:37:e3:89:66:cf:
                    82:72:1f:11:4a:bf:0d:ab:14:93:4d:54:48:89:31:
                    1f:d3:8e:1b:69:90:01:1f:9f:f2:a9:3e:1e:82:77:
                    cd:e4:01:7b:01:99:54:74:ad:c2:f2:f5:bf:27:56:
                    ca:d4:13:40:ad:24:4a:89:13:60:98:11:b0:66:f4:
                    1f:b3:76:36:65:a0:8f:3e:3f
                Exponent: 65537 (0x10001)
        X509v3 extensions:
            X509v3 Basic Constraints: 
                CA:FALSE
            Netscape Comment: 
                OpenSSL Generated Certificate
            X509v3 Subject Key Identifier: 
                FE:D8:4B:AB:47:B2:EE:96:B9:06:8A:34:A9:FA:2A:27:63:98:1C:C3
            X509v3 Authority Key Identifier: 
                keyid:0D:D0:7E:ED:1A:88:3D:BA:8C:F5:69:A7:63:35:D5:09:D1:AA:9D:01

    Signature Algorithm: sha1WithRSAEncryption
        6d:76:36:31:a6:7b:04:98:9b:c0:70:8d:95:40:d0:89:a4:24:
        76:16:47:8d:0b:99:74:c3:72:f3:89:03:e4:c2:5f:57:c0:18:
        ab:89:8c:78:53:75:e2:53:1e:e1:ce:58:7f:09:21:3a:c7:17:
        98:7f:4e:3d:06:29:f7:04:a6:f7:a5:26:b4:df:5b:22:19:a1:
        69:70:3f:c7:16:cf:5f:e2:76:36:f1:ab:0b:fc:ec:a7:97:b3:
        5a:af:f8:03:a5:d3:4e:6f:3f:14:40:e6:a3:af:ea:08:7d:74:
        f8:e3:30:41:62:16:78:8c:b5:95:53:1f:85:b4:1a:ed:6c:48:
        55:f8
-----BEGIN CERTIFICATE-----
MIIDMjCCApugAwIBAgICA2YwDQYJKoZIhvcNAQEFBQAwgbIxCzAJBgNVBAYTAkFV
MQwwCgYDVQQIEwNOU1cxDzANBgNVBAcTBlN5ZG5leTEdMBsGA1UEChMUTWFjcXVh
cmllIFVuaXZlcnNpdHkxDTALBgNVBAsTBE1BTVMxKzApBgNVBAMTIk1BTVMgVGVz
dGJlZCBGZWRlcmF0aW9uIExldmVsIDEgQ0ExKTAnBgkqhkiG9w0BCQEWGnN5c2Fk
bWluQGZlZGVyYXRpb24ub3JnLmF1MB4XDTA4MDgyOTAyNDcxMFoXDTA5MDgyOTAy
NDcxMFowgYwxCzAJBgNVBAYTAmF1MQwwCgYDVQQIEwNuc3cxDzANBgNVBAcTBnN5
ZG5leTELMAkGA1UEChMCbXExDzANBgNVBAsTBm1lbGNvZTEZMBcGA1UEAxMQYXJj
cy5yYW1wLm9yZy5hdTElMCMGCSqGSIb3DQEJARYWYWRtaW5AbWVsY29lLm1xLmVk
dS5hdTCBnzANBgkqhkiG9w0BAQEFAAOBjQAwgYkCgYEAwsodxpvgbTNaTTXu9GCO
+iLhGFEqnyZg2l4YyFiFmd/MM3Pqap/rZfvlDH7XXIPX7hFzDmSfN+OJZs+Cch8R
Sr8NqxSTTVRIiTEf044baZABH5/yqT4egnfN5AF7AZlUdK3C8vW/J1bK1BNArSRK
iRNgmBGwZvQfs3Y2ZaCPPj8CAwEAAaN7MHkwCQYDVR0TBAIwADAsBglghkgBhvhC
AQ0EHxYdT3BlblNTTCBHZW5lcmF0ZWQgQ2VydGlmaWNhdGUwHQYDVR0OBBYEFP7Y
S6tHsu6WuQaKNKn6KidjmBzDMB8GA1UdIwQYMBaAFA3Qfu0aiD26jPVpp2M11QnR
qp0BMA0GCSqGSIb3DQEBBQUAA4GBAG12NjGmewSYm8BwjZVA0ImkJHYWR40LmXTD
cvOJA+TCX1fAGKuJjHhTdeJTHuHOWH8JITrHF5h/Tj0GKfcEpvelJrTfWyIZoWlw
P8cWz1/idjbxqwv87KeXs1qv+AOl005vPxRA5qOv6gh9dPjjMEFiFniMtZVTH4W0
Gu1sSFX4
-----END CERTIFICATE-----
